target datalayout = "e-m:e-p270:32:32-p271:32:32-p272:64:64-i64:64-i128:128-f80:128-n8:16:32:64-S128"
target triple = "x86_64-unknown-linux-gnu"

%"class.boost::detail::shared_count" = type { ptr }
%"class.QuantLib::Calendar" = type { %"class.boost::shared_ptr.7" }
%"class.boost::shared_ptr.7" = type { ptr, %"class.boost::detail::shared_count" }
%"class.QuantLib::Date" = type { i64 }

; Function Attrs: inlinehint mustprogress uwtable
define linkonce_odr i64 @_ZNK8QuantLib23VolatilityTermStructure19optionDateFromTenorERKNS_6PeriodE(ptr noundef nonnull align 8 dereferenceable(68) %this, ptr noundef nonnull align 4 dereferenceable(8) %p) #9 comdat align 2 personality ptr @__gxx_personality_v0 {
entry:
  %retval = alloca %"class.QuantLib::Date", align 8
  %this.addr = alloca ptr, align 8
  %p.addr = alloca ptr, align 8
  %ref.tmp = alloca %"class.QuantLib::Calendar", align 8
  %exn.slot = alloca ptr, align 8
  %ehselector.slot = alloca i32, align 4
  store ptr %this, ptr %this.addr, align 8, !tbaa !3
  store ptr %p, ptr %p.addr, align 8, !tbaa !3
  %this1 = load ptr, ptr %this.addr, align 8
  call void @llvm.lifetime.start.p0(i64 16, ptr %ref.tmp) #17
  %vtable = load ptr, ptr %this1, align 8, !tbaa !26
  %vfn = getelementptr inbounds ptr, ptr %vtable, i64 6
  %0 = load ptr, ptr %vfn, align 8
  call void %0(ptr dead_on_unwind writable sret(%"class.QuantLib::Calendar") align 8 %ref.tmp, ptr noundef nonnull align 8 dereferenceable(64) %this1)
  %vtable2 = load ptr, ptr %this1, align 8, !tbaa !26
  %vfn3 = getelementptr inbounds ptr, ptr %vtable2, i64 5
  %1 = load ptr, ptr %vfn3, align 8
  %call = invoke noundef nonnull align 8 dereferenceable(8) ptr %1(ptr noundef nonnull align 8 dereferenceable(64) %this1)
          to label %invoke.cont unwind label %lpad

invoke.cont:                                      ; preds = %entry
  %2 = load ptr, ptr %p.addr, align 8, !tbaa !3
  %vtable4 = load ptr, ptr %this1, align 8, !tbaa !26
  %vfn5 = getelementptr inbounds ptr, ptr %vtable4, i64 9
  %3 = load ptr, ptr %vfn5, align 8
  %call7 = invoke noundef i32 %3(ptr noundef nonnull align 8 dereferenceable(68) %this1)
          to label %invoke.cont6 unwind label %lpad

invoke.cont6:                                     ; preds = %invoke.cont
  %call9 = invoke i64 @_ZNK8QuantLib8Calendar7advanceERKNS_4DateERKNS_6PeriodENS_21BusinessDayConventionEb(ptr noundef nonnull align 8 dereferenceable(16) %ref.tmp, ptr noundef nonnull align 8 dereferenceable(8) %call, ptr noundef nonnull align 4 dereferenceable(8) %2, i32 noundef %call7, i1 noundef zeroext false)
          to label %invoke.cont8 unwind label %lpad

invoke.cont8:                                     ; preds = %invoke.cont6
  %coerce.dive = getelementptr inbounds nuw %"class.QuantLib::Date", ptr %retval, i32 0, i32 0
  store i64 %call9, ptr %coerce.dive, align 8
  call void @_ZN8QuantLib8CalendarD2Ev(ptr noundef nonnull align 8 dereferenceable(16) %ref.tmp) #17
  call void @llvm.lifetime.end.p0(i64 16, ptr %ref.tmp) #17
  %coerce.dive10 = getelementptr inbounds nuw %"class.QuantLib::Date", ptr %retval, i32 0, i32 0
  %4 = load i64, ptr %coerce.dive10, align 8
  ret i64 %4

lpad:                                             ; preds = %invoke.cont6, %invoke.cont, %entry
  %5 = landingpad { ptr, i32 }
          cleanup
  %6 = extractvalue { ptr, i32 } %5, 0
  store ptr %6, ptr %exn.slot, align 8
  %7 = extractvalue { ptr, i32 } %5, 1
  store i32 %7, ptr %ehselector.slot, align 4
  call void @_ZN8QuantLib8CalendarD2Ev(ptr noundef nonnull align 8 dereferenceable(16) %ref.tmp) #17
  call void @llvm.lifetime.end.p0(i64 16, ptr %ref.tmp) #17
  br label %eh.resume

eh.resume:                                        ; preds = %lpad
  %exn = load ptr, ptr %exn.slot, align 8
  %sel = load i32, ptr %ehselector.slot, align 4
  %lpad.val = insertvalue { ptr, i32 } poison, ptr %exn, 0
  %lpad.val11 = insertvalue { ptr, i32 } %lpad.val, i32 %sel, 1
  resume { ptr, i32 } %lpad.val11
}

; Function Attrs: mustprogress uwtable
define noundef double @_ZNK8QuantLib20CPIVolatilitySurface13totalVarianceERKNS_6PeriodEdS3_b(ptr noundef nonnull align 8 dereferenceable(93) %this, ptr noundef nonnull align 4 dereferenceable(8) %tenor, double noundef %strike, ptr noundef nonnull align 4 dereferenceable(8) %obsLag, i1 noundef zeroext %extrap) unnamed_addr #7 align 2 {
entry:
  %this.addr = alloca ptr, align 8
  %tenor.addr = alloca ptr, align 8
  %strike.addr = alloca double, align 8
  %obsLag.addr = alloca ptr, align 8
  %extrap.addr = alloca i8, align 1
  %maturityDate = alloca %"class.QuantLib::Date", align 8
  store ptr %this, ptr %this.addr, align 8, !tbaa !3
  store ptr %tenor, ptr %tenor.addr, align 8, !tbaa !3
  store double %strike, ptr %strike.addr, align 8, !tbaa !41
  store ptr %obsLag, ptr %obsLag.addr, align 8, !tbaa !3
  %storedv = zext i1 %extrap to i8
  store i8 %storedv, ptr %extrap.addr, align 1, !tbaa !25
  %this1 = load ptr, ptr %this.addr, align 8
  call void @llvm.lifetime.start.p0(i64 8, ptr %maturityDate) #17
  %0 = load ptr, ptr %tenor.addr, align 8, !tbaa !3
  %call = call i64 @_ZNK8QuantLib23VolatilityTermStructure19optionDateFromTenorERKNS_6PeriodE(ptr noundef nonnull align 8 dereferenceable(68) %this1, ptr noundef nonnull align 4 dereferenceable(8) %0)
  %coerce.dive = getelementptr inbounds nuw %"class.QuantLib::Date", ptr %maturityDate, i32 0, i32 0
  store i64 %call, ptr %coerce.dive, align 8
  %1 = load double, ptr %strike.addr, align 8, !tbaa !41
  %2 = load ptr, ptr %obsLag.addr, align 8, !tbaa !3
  %3 = load i8, ptr %extrap.addr, align 1, !tbaa !25, !range !36, !noundef !37
  %loadedv = trunc i8 %3 to i1
  %vtable = load ptr, ptr %this1, align 8, !tbaa !26
  %vfn = getelementptr inbounds ptr, ptr %vtable, i64 12
  %4 = load ptr, ptr %vfn, align 8
  %call2 = call noundef double %4(ptr noundef nonnull align 8 dereferenceable(93) %this1, ptr noundef nonnull align 8 dereferenceable(8) %maturityDate, double noundef %1, ptr noundef nonnull align 4 dereferenceable(8) %2, i1 noundef zeroext %loadedv)
  call void @llvm.lifetime.end.p0(i64 8, ptr %maturityDate) #17
  ret double %call2
}